target datalayout = "e-m:e-p270:32:32-p271:32:32-p272:64:64-i64:64-i128:128-f80:128-n8:16:32:64-S128"
target triple = "x86_64-pc-linux-gnu"

%struct._packet_info = type { ptr, ptr, i32, i32, %struct.nstime_t, %struct.nstime_t, %struct.nstime_t, i32, ptr, ptr, ptr, ptr, %struct._address, %struct._address, %struct._address, %struct._address, %struct._address, %struct._address, i32, ptr, i32, %struct.anon, i32, i32, i32, i32, ptr, i32, ptr, ptr, i16, i16, i32, i32, i16, i32, i32, ptr, ptr, ptr, i8, i8, i16, i16, i16, i32, i16, i16, ptr, ptr, ptr, ptr, ptr, i32 }
%struct.nstime_t = type { i64, i32 }
%struct._address = type { i32, i32, ptr, ptr }
%struct.anon = type { i8, [3 x i8] }
%struct._bluetooth_device_tap_t = type { i32, i32, i32, i32, [6 x i8], i32, %union.anon }
%union.anon = type { ptr, [8 x i8] }

@bluetooth_device_tap = hidden global i32 0, align 4

; Function Attrs: nounwind uwtable
define hidden i32 @dissect_bd_addr(i32 noundef %0, ptr noundef %1, ptr noundef %2, ptr noundef %3, i32 noundef %4, i32 noundef %5, i32 noundef %6, i32 noundef %7, ptr noundef %8) #1 {
  %10 = alloca i32, align 4
  %11 = alloca ptr, align 8
  %12 = alloca ptr, align 8
  %13 = alloca ptr, align 8
  %14 = alloca i32, align 4
  %15 = alloca i32, align 4
  %16 = alloca i32, align 4
  %17 = alloca i32, align 4
  %18 = alloca ptr, align 8
  %19 = alloca [6 x i8], align 1
  %20 = alloca ptr, align 8
  store i32 %0, ptr %10, align 4
  store ptr %1, ptr %11, align 8
  store ptr %2, ptr %12, align 8
  store ptr %3, ptr %13, align 8
  store i32 %4, ptr %14, align 4
  store i32 %5, ptr %15, align 4
  store i32 %6, ptr %16, align 4
  store i32 %7, ptr %17, align 4
  store ptr %8, ptr %18, align 8
  %21 = load ptr, ptr %13, align 8
  %22 = load i32, ptr %14, align 4
  %23 = call zeroext i8 @tvb_get_guint8(ptr noundef %21, i32 noundef %22)
  %24 = getelementptr [6 x i8], ptr %19, i64 0, i64 5
  store i8 %23, ptr %24, align 1
  %25 = load ptr, ptr %13, align 8
  %26 = load i32, ptr %14, align 4
  %27 = add i32 %26, 1
  %28 = call zeroext i8 @tvb_get_guint8(ptr noundef %25, i32 noundef %27)
  %29 = getelementptr [6 x i8], ptr %19, i64 0, i64 4
  store i8 %28, ptr %29, align 1
  %30 = load ptr, ptr %13, align 8
  %31 = load i32, ptr %14, align 4
  %32 = add i32 %31, 2
  %33 = call zeroext i8 @tvb_get_guint8(ptr noundef %30, i32 noundef %32)
  %34 = getelementptr [6 x i8], ptr %19, i64 0, i64 3
  store i8 %33, ptr %34, align 1
  %35 = load ptr, ptr %13, align 8
  %36 = load i32, ptr %14, align 4
  %37 = add i32 %36, 3
  %38 = call zeroext i8 @tvb_get_guint8(ptr noundef %35, i32 noundef %37)
  %39 = getelementptr [6 x i8], ptr %19, i64 0, i64 2
  store i8 %38, ptr %39, align 1
  %40 = load ptr, ptr %13, align 8
  %41 = load i32, ptr %14, align 4
  %42 = add i32 %41, 4
  %43 = call zeroext i8 @tvb_get_guint8(ptr noundef %40, i32 noundef %42)
  %44 = getelementptr [6 x i8], ptr %19, i64 0, i64 1
  store i8 %43, ptr %44, align 1
  %45 = load ptr, ptr %13, align 8
  %46 = load i32, ptr %14, align 4
  %47 = add i32 %46, 5
  %48 = call zeroext i8 @tvb_get_guint8(ptr noundef %45, i32 noundef %47)
  %49 = getelementptr [6 x i8], ptr %19, i64 0, i64 0
  store i8 %48, ptr %49, align 1
  %50 = load ptr, ptr %12, align 8
  %51 = load i32, ptr %10, align 4
  %52 = load ptr, ptr %13, align 8
  %53 = load i32, ptr %14, align 4
  %54 = getelementptr inbounds [6 x i8], ptr %19, i64 0, i64 0
  %55 = call ptr @proto_tree_add_ether(ptr noundef %50, i32 noundef %51, ptr noundef %52, i32 noundef %53, i32 noundef 6, ptr noundef %54)
  %56 = load i32, ptr %14, align 4
  %57 = add i32 %56, 6
  store i32 %57, ptr %14, align 4
  %58 = load i32, ptr @bluetooth_device_tap, align 4
  %59 = call i32 @have_tap_listener(i32 noundef %58)
  %60 = icmp ne i32 %59, 0
  br i1 %60, label %61, label %86

61:                                               ; preds = %9
  %62 = load ptr, ptr %11, align 8
  %63 = getelementptr inbounds %struct._packet_info, ptr %62, i32 0, i32 50
  %64 = load ptr, ptr %63, align 8
  %65 = call noalias ptr @wmem_alloc(ptr noundef %64, i64 noundef 48)
  store ptr %65, ptr %20, align 8
  %66 = load i32, ptr %16, align 4
  %67 = load ptr, ptr %20, align 8
  %68 = getelementptr inbounds %struct._bluetooth_device_tap_t, ptr %67, i32 0, i32 0
  store i32 %66, ptr %68, align 8
  %69 = load i32, ptr %17, align 4
  %70 = load ptr, ptr %20, align 8
  %71 = getelementptr inbounds %struct._bluetooth_device_tap_t, ptr %70, i32 0, i32 1
  store i32 %69, ptr %71, align 4
  %72 = load ptr, ptr %20, align 8
  %73 = getelementptr inbounds %struct._bluetooth_device_tap_t, ptr %72, i32 0, i32 4
  %74 = getelementptr inbounds [6 x i8], ptr %73, i64 0, i64 0
  %75 = getelementptr inbounds [6 x i8], ptr %19, i64 0, i64 0
  call void @llvm.memcpy.p0.p0.i64(ptr align 8 %74, ptr align 1 %75, i64 6, i1 false)
  %76 = load ptr, ptr %20, align 8
  %77 = getelementptr inbounds %struct._bluetooth_device_tap_t, ptr %76, i32 0, i32 3
  store i32 1, ptr %77, align 4
  %78 = load i32, ptr %15, align 4
  %79 = load ptr, ptr %20, align 8
  %80 = getelementptr inbounds %struct._bluetooth_device_tap_t, ptr %79, i32 0, i32 2
  store i32 %78, ptr %80, align 8
  %81 = load ptr, ptr %20, align 8
  %82 = getelementptr inbounds %struct._bluetooth_device_tap_t, ptr %81, i32 0, i32 5
  store i32 0, ptr %82, align 8
  %83 = load i32, ptr @bluetooth_device_tap, align 4
  %84 = load ptr, ptr %11, align 8
  %85 = load ptr, ptr %20, align 8
  call void @tap_queue_packet(i32 noundef %83, ptr noundef %84, ptr noundef %85)
  br label %86

86:                                               ; preds = %61, %9
  %87 = load ptr, ptr %18, align 8
  %88 = icmp ne ptr %87, null
  br i1 %88, label %89, label %92

89:                                               ; preds = %86
  %90 = load ptr, ptr %18, align 8
  %91 = getelementptr inbounds [6 x i8], ptr %19, i64 0, i64 0
  call void @llvm.memcpy.p0.p0.i64(ptr align 1 %90, ptr align 1 %91, i64 6, i1 false)
  br label %92

92:                                               ; preds = %89, %86
  %93 = load i32, ptr %14, align 4
  ret i32 %93
}