; Function Attrs: nounwind uwtable
define hidden noundef i32 @dissect_bd_addr(i32 noundef %0, ptr noundef %1, ptr noundef %2, ptr noundef %3, i32 noundef %4, i32 noundef %5, i32 noundef %6, i32 noundef %7, ptr noundef writeonly %8) local_unnamed_addr #1 {
  %10 = alloca [6 x i8], align 1
  %11 = tail call zeroext i8 @tvb_get_guint8(ptr noundef %3, i32 noundef %4) #9
  %12 = getelementptr inbounds nuw i8, ptr %10, i64 5
  store i8 %11, ptr %12, align 1
  %13 = add i32 %4, 1
  %14 = tail call zeroext i8 @tvb_get_guint8(ptr noundef %3, i32 noundef %13) #9
  %15 = getelementptr inbounds nuw i8, ptr %10, i64 4
  store i8 %14, ptr %15, align 1
  %16 = add i32 %4, 2
  %17 = tail call zeroext i8 @tvb_get_guint8(ptr noundef %3, i32 noundef %16) #9
  %18 = getelementptr inbounds nuw i8, ptr %10, i64 3
  store i8 %17, ptr %18, align 1
  %19 = add i32 %4, 3
  %20 = tail call zeroext i8 @tvb_get_guint8(ptr noundef %3, i32 noundef %19) #9
  %21 = getelementptr inbounds nuw i8, ptr %10, i64 2
  store i8 %20, ptr %21, align 1
  %22 = add i32 %4, 4
  %23 = tail call zeroext i8 @tvb_get_guint8(ptr noundef %3, i32 noundef %22) #9
  %24 = getelementptr inbounds nuw i8, ptr %10, i64 1
  store i8 %23, ptr %24, align 1
  %25 = add i32 %4, 5
  %26 = tail call zeroext i8 @tvb_get_guint8(ptr noundef %3, i32 noundef %25) #9
  store i8 %26, ptr %10, align 1
  %27 = call ptr @proto_tree_add_ether(ptr noundef %2, i32 noundef %0, ptr noundef %3, i32 noundef %4, i32 noundef 6, ptr noundef nonnull %10) #9
  %28 = load i32, ptr @bluetooth_device_tap, align 4
  %29 = call i32 @have_tap_listener(i32 noundef %28) #9
  %.not = icmp eq i32 %29, 0
  br i1 %.not, label %40, label %30

30:                                               ; preds = %9
  %31 = getelementptr inbounds nuw i8, ptr %1, i64 408
  %32 = load ptr, ptr %31, align 8
  %33 = call noalias ptr @wmem_alloc(ptr noundef %32, i64 noundef 48) #9
  store i32 %6, ptr %33, align 8
  %34 = getelementptr inbounds nuw i8, ptr %33, i64 4
  store i32 %7, ptr %34, align 4
  %35 = getelementptr inbounds nuw i8, ptr %33, i64 16
  call void @llvm.memcpy.p0.p0.i64(ptr noundef nonnull align 8 dereferenceable(6) %35, ptr noundef nonnull align 1 dereferenceable(6) %10, i64 6, i1 false)
  %36 = getelementptr inbounds nuw i8, ptr %33, i64 12
  store i32 1, ptr %36, align 4
  %37 = getelementptr inbounds nuw i8, ptr %33, i64 8
  store i32 %5, ptr %37, align 8
  %38 = getelementptr inbounds nuw i8, ptr %33, i64 24
  store i32 0, ptr %38, align 8
  %39 = load i32, ptr @bluetooth_device_tap, align 4
  call void @tap_queue_packet(i32 noundef %39, ptr noundef %1, ptr noundef nonnull %33) #9
  br label %40

40:                                               ; preds = %30, %9
  %.not31 = icmp eq ptr %8, null
  br i1 %.not31, label %42, label %41

41:                                               ; preds = %40
  call void @llvm.memcpy.p0.p0.i64(ptr noundef nonnull align 1 dereferenceable(6) %8, ptr noundef nonnull align 1 dereferenceable(6) %10, i64 6, i1 false)
  br label %42

42:                                               ; preds = %41, %40
  %43 = add i32 %4, 6
  ret i32 %43
}